; Function Attrs: mustprogress uwtable
define noundef zeroext i1 @_ZN7rocksdb14OptionTypeInfo13TypesAreEqualERKNS_13ConfigOptionsERKSt13unordered_mapINSt7__cxx1112basic_stringIcSt11char_traitsIcESaIcEEES0_St4hashISA_ESt8equal_toISA_ESaISt4pairIKSA_S0_EEEPKvSN_PSA_(ptr noundef nonnull align 8 dereferenceable(80) %0, ptr noundef nonnull readonly align 8 captures(none) dereferenceable(56) %1, ptr noundef %2, ptr noundef %3, ptr noundef %4) local_unnamed_addr #1 align 2 personality ptr @__gxx_personality_v0 {
  %6 = getelementptr inbounds nuw i8, ptr %1, i64 16
  br label %7

7:                                                ; preds = %8, %5
  %.sroa.016.0.in = phi ptr [ %6, %5 ], [ %.sroa.016.0, %8 ]
  %.sroa.016.0 = load ptr, ptr %.sroa.016.0.in, align 8, !tbaa !577
  %.not = icmp eq ptr %.sroa.016.0, null
  br i1 %.not, label %12, label %8

8:                                                ; preds = %7
  %9 = getelementptr inbounds nuw i8, ptr %.sroa.016.0, i64 8
  %10 = getelementptr inbounds nuw i8, ptr %.sroa.016.0, i64 40
  %11 = tail call noundef zeroext i1 @_ZNK7rocksdb14OptionTypeInfo8AreEqualERKNS_13ConfigOptionsERKNSt7__cxx1112basic_stringIcSt11char_traitsIcESaIcEEEPKvSD_PS9_(ptr noundef nonnull align 8 dereferenceable(180) %10, ptr noundef nonnull align 8 dereferenceable(80) %0, ptr noundef nonnull align 8 dereferenceable(32) %9, ptr noundef %2, ptr noundef %3, ptr noundef %4)
  br i1 %11, label %7, label %12

12:                                               ; preds = %7, %8
  ret i1 %.not
}